target datalayout = "e-m:e-p270:32:32-p271:32:32-p272:64:64-i64:64-i128:128-f80:128-n8:16:32:64-S128"
target triple = "x86_64-pc-linux-gnu"

%"class.google::protobuf::internal::LogMessage" = type { i32, ptr, i32, %"class.std::__cxx11::basic_string" }
%"class.std::__cxx11::basic_string" = type { %"struct.std::__cxx11::basic_string<char>::_Alloc_hider", i64, %union.anon }
%"struct.std::__cxx11::basic_string<char>::_Alloc_hider" = type { ptr }
%union.anon = type { i64, [8 x i8] }
%"class.google::protobuf::internal::LogFinisher" = type { i8 }
%"class.google::protobuf::strings::ByteSource" = type { ptr }
%"class.google::protobuf::strings::LimitByteSource" = type { %"class.google::protobuf::strings::ByteSource", ptr, i64 }

@.str = private unnamed_addr constant [40 x i8] c"third_party/protobuf-lite/bytestream.cc\00", align 1
@.str.9 = private unnamed_addr constant [32 x i8] c"CHECK failed: (n) <= (limit_): \00", align 1

; Function Attrs: mustprogress uwtable
define void @_ZN6google8protobuf7strings15LimitByteSource6CopyToEPNS1_8ByteSinkEm(ptr noundef nonnull align 8 dereferenceable(24) %0, ptr noundef %1, i64 noundef %2) unnamed_addr #4 align 2 personality ptr @__gxx_personality_v0 {
  %4 = alloca ptr, align 8
  %5 = alloca ptr, align 8
  %6 = alloca i64, align 8
  %7 = alloca %"class.google::protobuf::internal::LogMessage", align 8
  %8 = alloca i1, align 1
  %9 = alloca ptr, align 8
  %10 = alloca i32, align 4
  %11 = alloca %"class.google::protobuf::internal::LogFinisher", align 1
  store ptr %0, ptr %4, align 8
  store ptr %1, ptr %5, align 8
  store i64 %2, ptr %6, align 8
  %12 = load ptr, ptr %4, align 8
  br label %13

13:                                               ; preds = %27, %3
  br i1 false, label %14, label %35

14:                                               ; preds = %13
  %15 = load i64, ptr %6, align 8
  %16 = getelementptr inbounds %"class.google::protobuf::strings::LimitByteSource", ptr %12, i32 0, i32 2
  %17 = load i64, ptr %16, align 8
  %18 = icmp ule i64 %15, %17
  store i1 false, ptr %8, align 1
  br i1 %18, label %19, label %20

19:                                               ; preds = %14
  br label %24

20:                                               ; preds = %14
  call void @_ZN6google8protobuf8internal10LogMessageC1ENS0_8LogLevelEPKci(ptr noundef nonnull align 8 dereferenceable(56) %7, i32 noundef 3, ptr noundef @.str, i32 noundef 191)
  store i1 true, ptr %8, align 1
  %21 = invoke noundef nonnull align 8 dereferenceable(56) ptr @_ZN6google8protobuf8internal10LogMessagelsEPKc(ptr noundef nonnull align 8 dereferenceable(56) %7, ptr noundef @.str.9)
          to label %22 unwind label %28

22:                                               ; preds = %20
  invoke void @_ZN6google8protobuf8internal11LogFinisheraSERNS1_10LogMessageE(ptr noundef nonnull align 1 dereferenceable(1) %11, ptr noundef nonnull align 8 dereferenceable(56) %21)
          to label %23 unwind label %28

23:                                               ; preds = %22
  br label %24

24:                                               ; preds = %23, %19
  %25 = load i1, ptr %8, align 1
  br i1 %25, label %26, label %27

26:                                               ; preds = %24
  call void @_ZN6google8protobuf8internal10LogMessageD1Ev(ptr noundef nonnull align 8 dereferenceable(56) %7) #3
  br label %27

27:                                               ; preds = %26, %24
  br label %13, !llvm.loop !11

28:                                               ; preds = %22, %20
  %29 = landingpad { ptr, i32 }
          cleanup
  %30 = extractvalue { ptr, i32 } %29, 0
  store ptr %30, ptr %9, align 8
  %31 = extractvalue { ptr, i32 } %29, 1
  store i32 %31, ptr %10, align 4
  %32 = load i1, ptr %8, align 1
  br i1 %32, label %33, label %34

33:                                               ; preds = %28
  call void @_ZN6google8protobuf8internal10LogMessageD1Ev(ptr noundef nonnull align 8 dereferenceable(56) %7) #3
  br label %34

34:                                               ; preds = %33, %28
  br label %47

35:                                               ; preds = %13
  %36 = getelementptr inbounds %"class.google::protobuf::strings::LimitByteSource", ptr %12, i32 0, i32 1
  %37 = load ptr, ptr %36, align 8
  %38 = load ptr, ptr %5, align 8
  %39 = load i64, ptr %6, align 8
  %40 = load ptr, ptr %37, align 8
  %41 = getelementptr inbounds ptr, ptr %40, i64 5
  %42 = load ptr, ptr %41, align 8
  call void %42(ptr noundef nonnull align 8 dereferenceable(8) %37, ptr noundef %38, i64 noundef %39)
  %43 = load i64, ptr %6, align 8
  %44 = getelementptr inbounds %"class.google::protobuf::strings::LimitByteSource", ptr %12, i32 0, i32 2
  %45 = load i64, ptr %44, align 8
  %46 = sub i64 %45, %43
  store i64 %46, ptr %44, align 8
  ret void

47:                                               ; preds = %34
  %48 = load ptr, ptr %9, align 8
  %49 = load i32, ptr %10, align 4
  %50 = insertvalue { ptr, i32 } poison, ptr %48, 0
  %51 = insertvalue { ptr, i32 } %50, i32 %49, 1
  resume { ptr, i32 } %51
}