; Function Attrs: mustprogress uwtable
define void @_ZN6google8protobuf7strings15LimitByteSource6CopyToEPNS1_8ByteSinkEm(ptr nocapture noundef nonnull align 8 dereferenceable(24) %0, ptr noundef %1, i64 noundef %2) unnamed_addr #3 align 2 personality ptr @__gxx_personality_v0 {
  %4 = getelementptr inbounds i8, ptr %0, i64 8
  %5 = load ptr, ptr %4, align 8
  %6 = load ptr, ptr %5, align 8
  %7 = getelementptr inbounds i8, ptr %6, i64 40
  %8 = load ptr, ptr %7, align 8
  tail call void %8(ptr noundef nonnull align 8 dereferenceable(8) %5, ptr noundef %1, i64 noundef %2)
  %9 = getelementptr inbounds i8, ptr %0, i64 16
  %10 = load i64, ptr %9, align 8
  %11 = sub i64 %10, %2
  store i64 %11, ptr %9, align 8
  ret void
}